; Function Attrs: mustprogress uwtable
define hidden void @_ZN5osgeo4proj22CPLJSonStreamingWriter12FormatStringERKNSt7__cxx1112basic_stringIcSt11char_traitsIcESaIcEEE(ptr dead_on_unwind noalias nonnull writable sret(%"class.std::__cxx11::basic_string") align 8 %0, ptr noundef nonnull align 8 dereferenceable(32) %1) local_unnamed_addr #0 align 2 personality ptr @__gxx_personality_v0 {
  %3 = alloca %"class.std::__cxx11::basic_string", align 8
  tail call void @_ZNSt7__cxx1112basic_stringIcSt11char_traitsIcESaIcEEC1Ev(ptr noundef nonnull align 8 dereferenceable(32) %0) #13
  %4 = invoke noundef nonnull align 8 dereferenceable(32) ptr @_ZNSt7__cxx1112basic_stringIcSt11char_traitsIcESaIcEEpLEc(ptr noundef nonnull align 8 dereferenceable(32) %0, i8 noundef signext 34)
          to label %5 unwind label %.loopexit.split-lp

5:                                                ; preds = %2
  %6 = tail call ptr @_ZNKSt7__cxx1112basic_stringIcSt11char_traitsIcESaIcEE5beginEv(ptr noundef nonnull align 8 dereferenceable(32) %1) #13
  %7 = tail call ptr @_ZNKSt7__cxx1112basic_stringIcSt11char_traitsIcESaIcEE3endEv(ptr noundef nonnull align 8 dereferenceable(32) %1) #13
  %.not14 = icmp eq ptr %6, %7
  br i1 %.not14, label %._crit_edge, label %.lr.ph

.lr.ph:                                           ; preds = %5, %28
  %.sroa.011.015 = phi ptr [ %29, %28 ], [ %6, %5 ]
  %8 = load i8, ptr %.sroa.011.015, align 1
  %9 = sext i8 %8 to i32
  switch i8 %8, label %18 [
    i8 34, label %.invoke
    i8 92, label %12
    i8 8, label %13
    i8 12, label %14
    i8 10, label %15
    i8 13, label %16
    i8 9, label %17
  ]

.loopexit:                                        ; preds = %.invoke, %20, %26
  %lpad.loopexit = landingpad { ptr, i32 }
          cleanup
  br label %32

.loopexit.split-lp:                               ; preds = %2, %._crit_edge
  %lpad.loopexit.split-lp = landingpad { ptr, i32 }
          cleanup
  br label %32

.invoke:                                          ; preds = %.lr.ph, %17, %16, %15, %14, %13, %12
  %10 = phi ptr [ @.str.2, %12 ], [ @.str.3, %13 ], [ @.str.4, %14 ], [ @.str.5, %15 ], [ @.str.6, %16 ], [ @.str.7, %17 ], [ @.str.1, %.lr.ph ]
  %11 = invoke noundef nonnull align 8 dereferenceable(32) ptr @_ZNSt7__cxx1112basic_stringIcSt11char_traitsIcESaIcEEpLEPKc(ptr noundef nonnull align 8 dereferenceable(32) %0, ptr noundef nonnull %10)
          to label %28 unwind label %.loopexit

12:                                               ; preds = %.lr.ph
  br label %.invoke

13:                                               ; preds = %.lr.ph
  br label %.invoke

14:                                               ; preds = %.lr.ph
  br label %.invoke

15:                                               ; preds = %.lr.ph
  br label %.invoke

16:                                               ; preds = %.lr.ph
  br label %.invoke

17:                                               ; preds = %.lr.ph
  br label %.invoke

18:                                               ; preds = %.lr.ph
  %19 = icmp ult i8 %8, 32
  br i1 %19, label %20, label %26

20:                                               ; preds = %18
  invoke void (ptr, ptr, ...) @_ZL10CPLSPrintfB5cxx11PKcz(ptr dead_on_unwind nonnull writable sret(%"class.std::__cxx11::basic_string") align 8 %3, ptr noundef nonnull @.str.8, i32 noundef %9)
          to label %21 unwind label %.loopexit

21:                                               ; preds = %20
  %22 = invoke noundef nonnull align 8 dereferenceable(32) ptr @_ZNSt7__cxx1112basic_stringIcSt11char_traitsIcESaIcEEpLERKS4_(ptr noundef nonnull align 8 dereferenceable(32) %0, ptr noundef nonnull align 8 dereferenceable(32) %3)
          to label %23 unwind label %24

23:                                               ; preds = %21
  call void @_ZNSt7__cxx1112basic_stringIcSt11char_traitsIcESaIcEED1Ev(ptr noundef nonnull align 8 dereferenceable(32) %3) #13
  br label %28

24:                                               ; preds = %21
  %25 = landingpad { ptr, i32 }
          cleanup
  call void @_ZNSt7__cxx1112basic_stringIcSt11char_traitsIcESaIcEED1Ev(ptr noundef nonnull align 8 dereferenceable(32) %3) #13
  br label %32

26:                                               ; preds = %18
  %27 = invoke noundef nonnull align 8 dereferenceable(32) ptr @_ZNSt7__cxx1112basic_stringIcSt11char_traitsIcESaIcEEpLEc(ptr noundef nonnull align 8 dereferenceable(32) %0, i8 noundef signext %8)
          to label %28 unwind label %.loopexit

28:                                               ; preds = %.invoke, %26, %23
  %29 = getelementptr inbounds i8, ptr %.sroa.011.015, i64 1
  %.not = icmp eq ptr %29, %7
  br i1 %.not, label %._crit_edge, label %.lr.ph

._crit_edge:                                      ; preds = %28, %5
  %30 = invoke noundef nonnull align 8 dereferenceable(32) ptr @_ZNSt7__cxx1112basic_stringIcSt11char_traitsIcESaIcEEpLEc(ptr noundef nonnull align 8 dereferenceable(32) %0, i8 noundef signext 34)
          to label %31 unwind label %.loopexit.split-lp

31:                                               ; preds = %._crit_edge
  ret void

32:                                               ; preds = %.loopexit, %.loopexit.split-lp, %24
  %.pn = phi { ptr, i32 } [ %25, %24 ], [ %lpad.loopexit, %.loopexit ], [ %lpad.loopexit.split-lp, %.loopexit.split-lp ]
  call void @_ZNSt7__cxx1112basic_stringIcSt11char_traitsIcESaIcEED1Ev(ptr noundef nonnull align 8 dereferenceable(32) %0) #13
  resume { ptr, i32 } %.pn
}